target datalayout = "e-m:e-p270:32:32-p271:32:32-p272:64:64-i64:64-i128:128-f80:128-n8:16:32:64-S128"
target triple = "x86_64-pc-linux-gnu"

@max_alloc_size = internal global i64 2147483647, align 8

; Function Attrs: nounwind uwtable
define void @av_free(ptr noundef %0) #0 {
  %2 = alloca ptr, align 8
  store ptr %0, ptr %2, align 8, !tbaa !8
  %3 = load ptr, ptr %2, align 8, !tbaa !8
  call void @free(ptr noundef %3) #11
  ret void
}

; Function Attrs: nounwind uwtable
define void @av_freep(ptr noundef %0) #0 {
  %2 = alloca ptr, align 8
  %3 = alloca ptr, align 8
  %4 = alloca ptr, align 8
  store ptr %0, ptr %2, align 8, !tbaa !8
  call void @llvm.lifetime.start.p0(i64 8, ptr %3) #11
  %5 = load ptr, ptr %2, align 8, !tbaa !8
  call void @llvm.memcpy.p0.p0.i64(ptr align 8 %3, ptr align 1 %5, i64 8, i1 false)
  %6 = load ptr, ptr %2, align 8, !tbaa !8
  store ptr null, ptr %4, align 8, !tbaa !8
  call void @llvm.memcpy.p0.p0.i64(ptr align 1 %6, ptr align 8 %4, i64 8, i1 false)
  %7 = load ptr, ptr %3, align 8, !tbaa !8
  call void @av_free(ptr noundef %7)
  call void @llvm.lifetime.end.p0(i64 8, ptr %3) #11
  ret void
}

; Function Attrs: nounwind uwtable
define ptr @av_realloc(ptr noundef %0, i64 noundef %1) #0 {
  %3 = alloca ptr, align 8
  %4 = alloca ptr, align 8
  %5 = alloca i64, align 8
  %6 = alloca ptr, align 8
  %7 = alloca i64, align 8
  %8 = alloca i32, align 4
  store ptr %0, ptr %4, align 8, !tbaa !8
  store i64 %1, ptr %5, align 8, !tbaa !4
  call void @llvm.lifetime.start.p0(i64 8, ptr %6) #11
  %9 = load i64, ptr %5, align 8, !tbaa !4
  %10 = load atomic i64, ptr @max_alloc_size monotonic, align 8
  store i64 %10, ptr %7, align 8
  %11 = load i64, ptr %7, align 8, !tbaa !4
  %12 = icmp ugt i64 %9, %11
  br i1 %12, label %13, label %14

13:                                               ; preds = %2
  store ptr null, ptr %3, align 8
  store i32 1, ptr %8, align 4
  br label %25

14:                                               ; preds = %2
  %15 = load ptr, ptr %4, align 8, !tbaa !8
  %16 = load i64, ptr %5, align 8, !tbaa !4
  %17 = load i64, ptr %5, align 8, !tbaa !4
  %18 = icmp ne i64 %17, 0
  %19 = xor i1 %18, true
  %20 = zext i1 %19 to i32
  %21 = sext i32 %20 to i64
  %22 = add i64 %16, %21
  %23 = call ptr @realloc(ptr noundef %15, i64 noundef %22) #12
  store ptr %23, ptr %6, align 8, !tbaa !8
  %24 = load ptr, ptr %6, align 8, !tbaa !8
  store ptr %24, ptr %3, align 8
  store i32 1, ptr %8, align 4
  br label %25

25:                                               ; preds = %14, %13
  call void @llvm.lifetime.end.p0(i64 8, ptr %6) #11
  %26 = load ptr, ptr %3, align 8
  ret ptr %26
}

; Function Attrs: nounwind uwtable
define ptr @av_dynarray2_add(ptr noundef %0, ptr noundef %1, i64 noundef %2, ptr noundef %3) #0 {
  %5 = alloca ptr, align 8
  %6 = alloca ptr, align 8
  %7 = alloca i64, align 8
  %8 = alloca ptr, align 8
  %9 = alloca ptr, align 8
  %10 = alloca i64, align 8
  %11 = alloca ptr, align 8
  store ptr %0, ptr %5, align 8, !tbaa !19
  store ptr %1, ptr %6, align 8, !tbaa !15
  store i64 %2, ptr %7, align 8, !tbaa !4
  store ptr %3, ptr %8, align 8, !tbaa !12
  call void @llvm.lifetime.start.p0(i64 8, ptr %9) #11
  store ptr null, ptr %9, align 8, !tbaa !12
  br label %12

12:                                               ; preds = %4
  call void @llvm.lifetime.start.p0(i64 8, ptr %10) #11
  %13 = load ptr, ptr %6, align 8, !tbaa !15
  %14 = load i32, ptr %13, align 4, !tbaa !17
  %15 = sext i32 %14 to i64
  store i64 %15, ptr %10, align 8, !tbaa !4
  %16 = load ptr, ptr %6, align 8, !tbaa !15
  %17 = load i32, ptr %16, align 4, !tbaa !17
  %18 = load ptr, ptr %6, align 8, !tbaa !15
  %19 = load i32, ptr %18, align 4, !tbaa !17
  %20 = sub nsw i32 %19, 1
  %21 = and i32 %17, %20
  %22 = icmp ne i32 %21, 0
  br i1 %22, label %55, label %23

23:                                               ; preds = %12
  %24 = load ptr, ptr %6, align 8, !tbaa !15
  %25 = load i32, ptr %24, align 4, !tbaa !17
  %26 = icmp ne i32 %25, 0
  br i1 %26, label %27, label %31

27:                                               ; preds = %23
  %28 = load ptr, ptr %6, align 8, !tbaa !15
  %29 = load i32, ptr %28, align 4, !tbaa !17
  %30 = shl i32 %29, 1
  br label %32

31:                                               ; preds = %23
  br label %32

32:                                               ; preds = %31, %27
  %33 = phi i32 [ %30, %27 ], [ 1, %31 ]
  %34 = sext i32 %33 to i64
  store i64 %34, ptr %10, align 8, !tbaa !4
  %35 = load i64, ptr %10, align 8, !tbaa !4
  %36 = load i64, ptr %7, align 8, !tbaa !4
  %37 = udiv i64 2147483647, %36
  %38 = icmp ugt i64 %35, %37
  br i1 %38, label %39, label %40

39:                                               ; preds = %32
  store i64 0, ptr %10, align 8, !tbaa !4
  br label %54

40:                                               ; preds = %32
  call void @llvm.lifetime.start.p0(i64 8, ptr %11) #11
  %41 = load ptr, ptr %5, align 8, !tbaa !19
  %42 = load ptr, ptr %41, align 8, !tbaa !8
  %43 = load i64, ptr %10, align 8, !tbaa !4
  %44 = load i64, ptr %7, align 8, !tbaa !4
  %45 = mul i64 %43, %44
  %46 = call ptr @av_realloc(ptr noundef %42, i64 noundef %45)
  store ptr %46, ptr %11, align 8, !tbaa !8
  %47 = load ptr, ptr %11, align 8, !tbaa !8
  %48 = icmp ne ptr %47, null
  br i1 %48, label %50, label %49

49:                                               ; preds = %40
  store i64 0, ptr %10, align 8, !tbaa !4
  br label %53

50:                                               ; preds = %40
  %51 = load ptr, ptr %11, align 8, !tbaa !8
  %52 = load ptr, ptr %5, align 8, !tbaa !19
  store ptr %51, ptr %52, align 8, !tbaa !8
  br label %53

53:                                               ; preds = %50, %49
  call void @llvm.lifetime.end.p0(i64 8, ptr %11) #11
  br label %54

54:                                               ; preds = %53, %39
  br label %55

55:                                               ; preds = %54, %12
  %56 = load i64, ptr %10, align 8, !tbaa !4
  %57 = icmp ne i64 %56, 0
  br i1 %57, label %58, label %78

58:                                               ; preds = %55
  %59 = load ptr, ptr %5, align 8, !tbaa !19
  %60 = load ptr, ptr %59, align 8, !tbaa !8
  %61 = load ptr, ptr %6, align 8, !tbaa !15
  %62 = load i32, ptr %61, align 4, !tbaa !17
  %63 = sext i32 %62 to i64
  %64 = load i64, ptr %7, align 8, !tbaa !4
  %65 = mul i64 %63, %64
  %66 = getelementptr inbounds nuw i8, ptr %60, i64 %65
  store ptr %66, ptr %9, align 8, !tbaa !12
  %67 = load ptr, ptr %8, align 8, !tbaa !12
  %68 = icmp ne ptr %67, null
  br i1 %68, label %69, label %73

69:                                               ; preds = %58
  %70 = load ptr, ptr %9, align 8, !tbaa !12
  %71 = load ptr, ptr %8, align 8, !tbaa !12
  %72 = load i64, ptr %7, align 8, !tbaa !4
  call void @llvm.memcpy.p0.p0.i64(ptr align 1 %70, ptr align 1 %71, i64 %72, i1 false)
  br label %74

73:                                               ; preds = %58
  br label %74

74:                                               ; preds = %73, %69
  %75 = load ptr, ptr %6, align 8, !tbaa !15
  %76 = load i32, ptr %75, align 4, !tbaa !17
  %77 = add nsw i32 %76, 1
  store i32 %77, ptr %75, align 4, !tbaa !17
  br label %81

78:                                               ; preds = %55
  %79 = load ptr, ptr %5, align 8, !tbaa !19
  call void @av_freep(ptr noundef %79)
  %80 = load ptr, ptr %6, align 8, !tbaa !15
  store i32 0, ptr %80, align 4, !tbaa !17
  br label %81

81:                                               ; preds = %78, %74
  call void @llvm.lifetime.end.p0(i64 8, ptr %10) #11
  br label %82

82:                                               ; preds = %81
  br label %83

83:                                               ; preds = %82
  %84 = load ptr, ptr %9, align 8, !tbaa !12
  call void @llvm.lifetime.end.p0(i64 8, ptr %9) #11
  ret ptr %84
}