; Function Attrs: mustprogress nounwind willreturn uwtable
define ptr @av_dynarray2_add(ptr noundef captures(none) %0, ptr noundef captures(none) %1, i64 noundef %2, ptr noundef readonly captures(address_is_null) %3) local_unnamed_addr #4 {
  %5 = load i32, ptr %1, align 4, !tbaa !9
  %6 = sext i32 %5 to i64
  %7 = tail call range(i32 0, 33) i32 @llvm.ctpop.i32(i32 %5)
  %.not = icmp samesign ult i32 %7, 2
  br i1 %.not, label %8, label %21

8:                                                ; preds = %4
  %.not29 = icmp eq i32 %5, 0
  %9 = shl i32 %5, 1
  %narrow = select i1 %.not29, i32 1, i32 %9
  %10 = sext i32 %narrow to i64
  %11 = udiv i64 2147483647, %2
  %12 = icmp ult i64 %11, %10
  br i1 %12, label %.thread, label %13

13:                                               ; preds = %8
  %14 = load ptr, ptr %0, align 8, !tbaa !4
  %15 = mul i64 %2, %10
  %16 = load atomic i64, ptr @max_alloc_size monotonic, align 8
  %17 = icmp ugt i64 %15, %16
  br i1 %17, label %.thread, label %av_realloc.exit

av_realloc.exit:                                  ; preds = %13
  %18 = tail call i64 @llvm.umax.i64(i64 %15, i64 1)
  %19 = tail call ptr @realloc(ptr noundef %14, i64 noundef %18) #22
  %.not30 = icmp eq ptr %19, null
  br i1 %.not30, label %.thread, label %20

20:                                               ; preds = %av_realloc.exit
  store ptr %19, ptr %0, align 8, !tbaa !4
  br label %21

21:                                               ; preds = %20, %4
  %.024 = phi i64 [ %6, %4 ], [ %10, %20 ]
  %.not31 = icmp eq i64 %.024, 0
  br i1 %.not31, label %.thread, label %22

22:                                               ; preds = %21
  %23 = load ptr, ptr %0, align 8, !tbaa !4
  %24 = load i32, ptr %1, align 4, !tbaa !9
  %25 = sext i32 %24 to i64
  %26 = mul i64 %2, %25
  %27 = getelementptr inbounds nuw i8, ptr %23, i64 %26
  %.not32 = icmp eq ptr %3, null
  br i1 %.not32, label %29, label %28

28:                                               ; preds = %22
  tail call void @llvm.memcpy.p0.p0.i64(ptr align 1 %27, ptr nonnull align 1 %3, i64 %2, i1 false)
  %.pre = load i32, ptr %1, align 4, !tbaa !9
  br label %29

29:                                               ; preds = %22, %28
  %30 = phi i32 [ %24, %22 ], [ %.pre, %28 ]
  %31 = add nsw i32 %30, 1
  br label %32

.thread:                                          ; preds = %13, %av_realloc.exit, %8, %21
  %.0.copyload1.i = load ptr, ptr %0, align 1
  store ptr null, ptr %0, align 1
  tail call void @free(ptr noundef %.0.copyload1.i) #21
  br label %32

32:                                               ; preds = %.thread, %29
  %storemerge = phi i32 [ 0, %.thread ], [ %31, %29 ]
  %.0 = phi ptr [ null, %.thread ], [ %27, %29 ]
  store i32 %storemerge, ptr %1, align 4, !tbaa !9
  ret ptr %.0
}